target datalayout = "e-m:e-p270:32:32-p271:32:32-p272:64:64-i64:64-i128:128-f80:128-n8:16:32:64-S128"
target triple = "x86_64-pc-linux-gnu"

%struct.FunctionCallInfoBaseData = type { ptr, ptr, ptr, i32, i8, i16, [0 x %struct.NullableDatum] }
%struct.NullableDatum = type { i64, i8 }
%struct.TSQueryData = type { i32, i32, [0 x i8] }
%struct.QTNode = type { ptr, i32, i32, ptr, i32, ptr }
%struct.QueryOperator = type { i8, i8, i16, i32 }

; Function Attrs: inlinehint nounwind uwtable
define internal i64 @TSQueryGetDatum(ptr noundef %0) #2 {
  %2 = alloca ptr, align 8
  store ptr %0, ptr %2, align 8
  %3 = load ptr, ptr %2, align 8
  %4 = call i64 @PointerGetDatum(ptr noundef %3)
  ret i64 %4
}

; Function Attrs: nounwind uwtable
define internal ptr @join_tsqueries(ptr noundef %0, ptr noundef %1, i8 noundef signext %2, i16 noundef zeroext %3) #0 {
  %5 = alloca ptr, align 8
  %6 = alloca ptr, align 8
  %7 = alloca i8, align 1
  %8 = alloca i16, align 2
  %9 = alloca ptr, align 8
  store ptr %0, ptr %5, align 8
  store ptr %1, ptr %6, align 8
  store i8 %2, ptr %7, align 1
  store i16 %3, ptr %8, align 2
  call void @llvm.lifetime.start.p0(i64 8, ptr %9) #7
  %10 = call ptr @palloc0(i64 noundef 40)
  store ptr %10, ptr %9, align 8
  %11 = load ptr, ptr %9, align 8
  %12 = getelementptr inbounds nuw %struct.QTNode, ptr %11, i32 0, i32 1
  %13 = load i32, ptr %12, align 8
  %14 = or i32 %13, 1
  store i32 %14, ptr %12, align 8
  %15 = call ptr @palloc0(i64 noundef 12)
  %16 = load ptr, ptr %9, align 8
  %17 = getelementptr inbounds nuw %struct.QTNode, ptr %16, i32 0, i32 0
  store ptr %15, ptr %17, align 8
  %18 = load ptr, ptr %9, align 8
  %19 = getelementptr inbounds nuw %struct.QTNode, ptr %18, i32 0, i32 0
  %20 = load ptr, ptr %19, align 8
  store i8 2, ptr %20, align 4
  %21 = load i8, ptr %7, align 1
  %22 = load ptr, ptr %9, align 8
  %23 = getelementptr inbounds nuw %struct.QTNode, ptr %22, i32 0, i32 0
  %24 = load ptr, ptr %23, align 8
  %25 = getelementptr inbounds nuw %struct.QueryOperator, ptr %24, i32 0, i32 1
  store i8 %21, ptr %25, align 1
  %26 = load i8, ptr %7, align 1
  %27 = sext i8 %26 to i32
  %28 = icmp eq i32 %27, 4
  br i1 %28, label %29, label %35

29:                                               ; preds = %4
  %30 = load i16, ptr %8, align 2
  %31 = load ptr, ptr %9, align 8
  %32 = getelementptr inbounds nuw %struct.QTNode, ptr %31, i32 0, i32 0
  %33 = load ptr, ptr %32, align 8
  %34 = getelementptr inbounds nuw %struct.QueryOperator, ptr %33, i32 0, i32 2
  store i16 %30, ptr %34, align 2
  br label %35

35:                                               ; preds = %29, %4
  %36 = call ptr @palloc0(i64 noundef 16)
  %37 = load ptr, ptr %9, align 8
  %38 = getelementptr inbounds nuw %struct.QTNode, ptr %37, i32 0, i32 5
  store ptr %36, ptr %38, align 8
  %39 = load ptr, ptr %6, align 8
  %40 = getelementptr inbounds nuw i8, ptr %39, i64 8
  %41 = load ptr, ptr %6, align 8
  %42 = getelementptr inbounds nuw i8, ptr %41, i64 8
  %43 = load ptr, ptr %6, align 8
  %44 = getelementptr inbounds nuw %struct.TSQueryData, ptr %43, i32 0, i32 1
  %45 = load i32, ptr %44, align 4
  %46 = sext i32 %45 to i64
  %47 = mul i64 %46, 12
  %48 = getelementptr inbounds nuw i8, ptr %42, i64 %47
  %49 = call ptr @QT2QTN(ptr noundef %40, ptr noundef %48)
  %50 = load ptr, ptr %9, align 8
  %51 = getelementptr inbounds nuw %struct.QTNode, ptr %50, i32 0, i32 5
  %52 = load ptr, ptr %51, align 8
  %53 = getelementptr inbounds ptr, ptr %52, i64 0
  store ptr %49, ptr %53, align 8
  %54 = load ptr, ptr %5, align 8
  %55 = getelementptr inbounds nuw i8, ptr %54, i64 8
  %56 = load ptr, ptr %5, align 8
  %57 = getelementptr inbounds nuw i8, ptr %56, i64 8
  %58 = load ptr, ptr %5, align 8
  %59 = getelementptr inbounds nuw %struct.TSQueryData, ptr %58, i32 0, i32 1
  %60 = load i32, ptr %59, align 4
  %61 = sext i32 %60 to i64
  %62 = mul i64 %61, 12
  %63 = getelementptr inbounds nuw i8, ptr %57, i64 %62
  %64 = call ptr @QT2QTN(ptr noundef %55, ptr noundef %63)
  %65 = load ptr, ptr %9, align 8
  %66 = getelementptr inbounds nuw %struct.QTNode, ptr %65, i32 0, i32 5
  %67 = load ptr, ptr %66, align 8
  %68 = getelementptr inbounds ptr, ptr %67, i64 1
  store ptr %64, ptr %68, align 8
  %69 = load ptr, ptr %9, align 8
  %70 = getelementptr inbounds nuw %struct.QTNode, ptr %69, i32 0, i32 2
  store i32 2, ptr %70, align 4
  %71 = load ptr, ptr %9, align 8
  call void @llvm.lifetime.end.p0(i64 8, ptr %9) #7
  ret ptr %71
}

; Function Attrs: inlinehint nounwind uwtable
define internal i64 @PointerGetDatum(ptr noundef %0) #2 {
  %2 = alloca ptr, align 8
  store ptr %0, ptr %2, align 8
  %3 = load ptr, ptr %2, align 8
  %4 = ptrtoint ptr %3 to i64
  ret i64 %4
}

; Function Attrs: inlinehint nounwind uwtable
define internal ptr @DatumGetPointer(i64 noundef %0) #2 {
  %2 = alloca i64, align 8
  store i64 %0, ptr %2, align 8
  %3 = load i64, ptr %2, align 8
  %4 = inttoptr i64 %3 to ptr
  ret ptr %4
}

; Function Attrs: inlinehint nounwind uwtable
define internal ptr @DatumGetTSQueryCopy(i64 noundef %0) #2 {
  %2 = alloca i64, align 8
  store i64 %0, ptr %2, align 8
  %3 = load i64, ptr %2, align 8
  %4 = call ptr @DatumGetPointer(i64 noundef %3)
  %5 = call ptr @pg_detoast_datum_copy(ptr noundef %4)
  ret ptr %5
}

; Function Attrs: nounwind uwtable
define dso_local i64 @tsquery_and(ptr noundef %0) #0 {
  %2 = alloca i64, align 8
  %3 = alloca ptr, align 8
  %4 = alloca ptr, align 8
  %5 = alloca ptr, align 8
  %6 = alloca ptr, align 8
  %7 = alloca ptr, align 8
  %8 = alloca i32, align 4
  store ptr %0, ptr %3, align 8
  call void @llvm.lifetime.start.p0(i64 8, ptr %4) #7
  %9 = load ptr, ptr %3, align 8
  %10 = getelementptr inbounds nuw %struct.FunctionCallInfoBaseData, ptr %9, i32 0, i32 6
  %11 = getelementptr inbounds [0 x %struct.NullableDatum], ptr %10, i64 0, i64 0
  %12 = getelementptr inbounds nuw %struct.NullableDatum, ptr %11, i32 0, i32 0
  %13 = load i64, ptr %12, align 8
  %14 = call ptr @DatumGetTSQueryCopy(i64 noundef %13)
  store ptr %14, ptr %4, align 8
  call void @llvm.lifetime.start.p0(i64 8, ptr %5) #7
  %15 = load ptr, ptr %3, align 8
  %16 = getelementptr inbounds nuw %struct.FunctionCallInfoBaseData, ptr %15, i32 0, i32 6
  %17 = getelementptr inbounds [0 x %struct.NullableDatum], ptr %16, i64 0, i64 1
  %18 = getelementptr inbounds nuw %struct.NullableDatum, ptr %17, i32 0, i32 0
  %19 = load i64, ptr %18, align 8
  %20 = call ptr @DatumGetTSQueryCopy(i64 noundef %19)
  store ptr %20, ptr %5, align 8
  call void @llvm.lifetime.start.p0(i64 8, ptr %6) #7
  call void @llvm.lifetime.start.p0(i64 8, ptr %7) #7
  %21 = load ptr, ptr %4, align 8
  %22 = getelementptr inbounds nuw %struct.TSQueryData, ptr %21, i32 0, i32 1
  %23 = load i32, ptr %22, align 4
  %24 = icmp eq i32 %23, 0
  br i1 %24, label %25, label %42

25:                                               ; preds = %1
  br label %26

26:                                               ; preds = %25
  %27 = load ptr, ptr %4, align 8
  %28 = load ptr, ptr %3, align 8
  %29 = getelementptr inbounds nuw %struct.FunctionCallInfoBaseData, ptr %28, i32 0, i32 6
  %30 = getelementptr inbounds [0 x %struct.NullableDatum], ptr %29, i64 0, i64 1
  %31 = getelementptr inbounds nuw %struct.NullableDatum, ptr %30, i32 0, i32 0
  %32 = load i64, ptr %31, align 8
  %33 = call ptr @DatumGetPointer(i64 noundef %32)
  %34 = icmp ne ptr %27, %33
  br i1 %34, label %35, label %37

35:                                               ; preds = %26
  %36 = load ptr, ptr %4, align 8
  call void @pfree(ptr noundef %36)
  br label %37

37:                                               ; preds = %35, %26
  br label %38

38:                                               ; preds = %37
  br label %39

39:                                               ; preds = %38
  %40 = load ptr, ptr %5, align 8
  %41 = call i64 @PointerGetDatum(ptr noundef %40)
  store i64 %41, ptr %2, align 8
  store i32 1, ptr %8, align 4
  br label %102

42:                                               ; preds = %1
  %43 = load ptr, ptr %5, align 8
  %44 = getelementptr inbounds nuw %struct.TSQueryData, ptr %43, i32 0, i32 1
  %45 = load i32, ptr %44, align 4
  %46 = icmp eq i32 %45, 0
  br i1 %46, label %47, label %64

47:                                               ; preds = %42
  br label %48

48:                                               ; preds = %47
  %49 = load ptr, ptr %5, align 8
  %50 = load ptr, ptr %3, align 8
  %51 = getelementptr inbounds nuw %struct.FunctionCallInfoBaseData, ptr %50, i32 0, i32 6
  %52 = getelementptr inbounds [0 x %struct.NullableDatum], ptr %51, i64 0, i64 1
  %53 = getelementptr inbounds nuw %struct.NullableDatum, ptr %52, i32 0, i32 0
  %54 = load i64, ptr %53, align 8
  %55 = call ptr @DatumGetPointer(i64 noundef %54)
  %56 = icmp ne ptr %49, %55
  br i1 %56, label %57, label %59

57:                                               ; preds = %48
  %58 = load ptr, ptr %5, align 8
  call void @pfree(ptr noundef %58)
  br label %59

59:                                               ; preds = %57, %48
  br label %60

60:                                               ; preds = %59
  br label %61

61:                                               ; preds = %60
  %62 = load ptr, ptr %4, align 8
  %63 = call i64 @PointerGetDatum(ptr noundef %62)
  store i64 %63, ptr %2, align 8
  store i32 1, ptr %8, align 4
  br label %102

64:                                               ; preds = %42
  br label %65

65:                                               ; preds = %64
  %66 = load ptr, ptr %4, align 8
  %67 = load ptr, ptr %5, align 8
  %68 = call ptr @join_tsqueries(ptr noundef %66, ptr noundef %67, i8 noundef signext 2, i16 noundef zeroext 0)
  store ptr %68, ptr %6, align 8
  %69 = load ptr, ptr %6, align 8
  %70 = call ptr @QTN2QT(ptr noundef %69)
  store ptr %70, ptr %7, align 8
  %71 = load ptr, ptr %6, align 8
  call void @QTNFree(ptr noundef %71)
  br label %72

72:                                               ; preds = %65
  %73 = load ptr, ptr %4, align 8
  %74 = load ptr, ptr %3, align 8
  %75 = getelementptr inbounds nuw %struct.FunctionCallInfoBaseData, ptr %74, i32 0, i32 6
  %76 = getelementptr inbounds [0 x %struct.NullableDatum], ptr %75, i64 0, i64 0
  %77 = getelementptr inbounds nuw %struct.NullableDatum, ptr %76, i32 0, i32 0
  %78 = load i64, ptr %77, align 8
  %79 = call ptr @DatumGetPointer(i64 noundef %78)
  %80 = icmp ne ptr %73, %79
  br i1 %80, label %81, label %83

81:                                               ; preds = %72
  %82 = load ptr, ptr %4, align 8
  call void @pfree(ptr noundef %82)
  br label %83

83:                                               ; preds = %81, %72
  br label %84

84:                                               ; preds = %83
  br label %85

85:                                               ; preds = %84
  br label %86

86:                                               ; preds = %85
  %87 = load ptr, ptr %5, align 8
  %88 = load ptr, ptr %3, align 8
  %89 = getelementptr inbounds nuw %struct.FunctionCallInfoBaseData, ptr %88, i32 0, i32 6
  %90 = getelementptr inbounds [0 x %struct.NullableDatum], ptr %89, i64 0, i64 1
  %91 = getelementptr inbounds nuw %struct.NullableDatum, ptr %90, i32 0, i32 0
  %92 = load i64, ptr %91, align 8
  %93 = call ptr @DatumGetPointer(i64 noundef %92)
  %94 = icmp ne ptr %87, %93
  br i1 %94, label %95, label %97

95:                                               ; preds = %86
  %96 = load ptr, ptr %5, align 8
  call void @pfree(ptr noundef %96)
  br label %97

97:                                               ; preds = %95, %86
  br label %98

98:                                               ; preds = %97
  br label %99

99:                                               ; preds = %98
  %100 = load ptr, ptr %7, align 8
  %101 = call i64 @TSQueryGetDatum(ptr noundef %100)
  store i64 %101, ptr %2, align 8
  store i32 1, ptr %8, align 4
  br label %102

102:                                              ; preds = %99, %61, %39
  call void @llvm.lifetime.end.p0(i64 8, ptr %7) #7
  call void @llvm.lifetime.end.p0(i64 8, ptr %6) #7
  call void @llvm.lifetime.end.p0(i64 8, ptr %5) #7
  call void @llvm.lifetime.end.p0(i64 8, ptr %4) #7
  %103 = load i64, ptr %2, align 8
  ret i64 %103
}