; Function Attrs: nounwind uwtable
define dso_local i64 @tsquery_and(ptr noundef readonly captures(none) %0) local_unnamed_addr #2 {
  %2 = getelementptr inbounds nuw i8, ptr %0, i64 32
  %3 = load i64, ptr %2, align 8
  %4 = inttoptr i64 %3 to ptr
  %5 = tail call ptr @pg_detoast_datum_copy(ptr noundef %4) #9
  %6 = getelementptr inbounds nuw i8, ptr %0, i64 48
  %7 = load i64, ptr %6, align 8
  %8 = inttoptr i64 %7 to ptr
  %9 = tail call ptr @pg_detoast_datum_copy(ptr noundef %8) #9
  %10 = getelementptr inbounds nuw i8, ptr %5, i64 4
  %11 = load i32, ptr %10, align 4
  %12 = icmp eq i32 %11, 0
  br i1 %12, label %13, label %16

13:                                               ; preds = %1
  %14 = load i64, ptr %6, align 8
  %15 = inttoptr i64 %14 to ptr
  %.not28 = icmp eq ptr %5, %15
  br i1 %.not28, label %56, label %.sink.split

16:                                               ; preds = %1
  %17 = getelementptr inbounds nuw i8, ptr %9, i64 4
  %18 = load i32, ptr %17, align 4
  %19 = icmp eq i32 %18, 0
  br i1 %19, label %20, label %23

20:                                               ; preds = %16
  %21 = load i64, ptr %6, align 8
  %22 = inttoptr i64 %21 to ptr
  %.not27 = icmp eq ptr %9, %22
  br i1 %.not27, label %56, label %.sink.split

23:                                               ; preds = %16
  %24 = tail call ptr @palloc0(i64 noundef 40) #9
  %25 = getelementptr inbounds nuw i8, ptr %24, i64 8
  %26 = load i32, ptr %25, align 8
  %27 = or i32 %26, 1
  store i32 %27, ptr %25, align 8
  %28 = tail call ptr @palloc0(i64 noundef 12) #9
  store ptr %28, ptr %24, align 8
  store i8 2, ptr %28, align 4
  %29 = load ptr, ptr %24, align 8
  %30 = getelementptr inbounds nuw i8, ptr %29, i64 1
  store i8 2, ptr %30, align 1
  %31 = tail call ptr @palloc0(i64 noundef 16) #9
  %32 = getelementptr inbounds nuw i8, ptr %24, i64 32
  store ptr %31, ptr %32, align 8
  %33 = getelementptr inbounds nuw i8, ptr %9, i64 8
  %34 = load i32, ptr %17, align 4
  %35 = sext i32 %34 to i64
  %36 = mul nsw i64 %35, 12
  %37 = getelementptr inbounds nuw i8, ptr %33, i64 %36
  %38 = tail call ptr @QT2QTN(ptr noundef nonnull %33, ptr noundef nonnull %37) #9
  %39 = load ptr, ptr %32, align 8
  store ptr %38, ptr %39, align 8
  %40 = getelementptr inbounds nuw i8, ptr %5, i64 8
  %41 = load i32, ptr %10, align 4
  %42 = sext i32 %41 to i64
  %43 = mul nsw i64 %42, 12
  %44 = getelementptr inbounds nuw i8, ptr %40, i64 %43
  %45 = tail call ptr @QT2QTN(ptr noundef nonnull %40, ptr noundef nonnull %44) #9
  %46 = load ptr, ptr %32, align 8
  %47 = getelementptr inbounds nuw i8, ptr %46, i64 8
  store ptr %45, ptr %47, align 8
  %48 = getelementptr inbounds nuw i8, ptr %24, i64 12
  store i32 2, ptr %48, align 4
  %49 = tail call ptr @QTN2QT(ptr noundef nonnull %24) #9
  tail call void @QTNFree(ptr noundef nonnull %24) #9
  %50 = load i64, ptr %2, align 8
  %51 = inttoptr i64 %50 to ptr
  %.not = icmp eq ptr %5, %51
  br i1 %.not, label %53, label %52

52:                                               ; preds = %23
  tail call void @pfree(ptr noundef nonnull %5) #9
  br label %53

53:                                               ; preds = %23, %52
  %54 = load i64, ptr %6, align 8
  %55 = inttoptr i64 %54 to ptr
  %.not26 = icmp eq ptr %9, %55
  br i1 %.not26, label %56, label %.sink.split

.sink.split:                                      ; preds = %53, %20, %13
  %.sink = phi ptr [ %5, %13 ], [ %9, %20 ], [ %9, %53 ]
  %.0.in.ph = phi ptr [ %9, %13 ], [ %5, %20 ], [ %49, %53 ]
  tail call void @pfree(ptr noundef nonnull %.sink) #9
  br label %56

56:                                               ; preds = %.sink.split, %53, %20, %13
  %.0.in = phi ptr [ %9, %13 ], [ %5, %20 ], [ %49, %53 ], [ %.0.in.ph, %.sink.split ]
  %.0 = ptrtoint ptr %.0.in to i64
  ret i64 %.0
}